target datalayout = "e-m:e-p270:32:32-p271:32:32-p272:64:64-i64:64-i128:128-f80:128-n8:16:32:64-S128"
target triple = "x86_64-pc-linux-gnu"

%struct._wmem_tree_t = type { ptr, ptr, ptr, i32, i32, ptr }

; Function Attrs: null_pointer_is_valid sspstrong uwtable
define zeroext i1 @wmem_tree_foreach(ptr noundef %0, ptr noundef %1, ptr noundef %2) #0 {
  %4 = alloca i1, align 1
  %5 = alloca ptr, align 8
  %6 = alloca ptr, align 8
  %7 = alloca ptr, align 8
  store ptr %0, ptr %5, align 8
  store ptr %1, ptr %6, align 8
  store ptr %2, ptr %7, align 8
  %8 = load ptr, ptr %5, align 8
  %9 = getelementptr inbounds nuw %struct._wmem_tree_t, ptr %8, i32 0, i32 2
  %10 = load ptr, ptr %9, align 8
  %11 = icmp ne ptr %10, null
  br i1 %11, label %13, label %12

12:                                               ; preds = %3
  store i1 false, ptr %4, align 1
  br label %20

13:                                               ; preds = %3
  %14 = load ptr, ptr %5, align 8
  %15 = getelementptr inbounds nuw %struct._wmem_tree_t, ptr %14, i32 0, i32 2
  %16 = load ptr, ptr %15, align 8
  %17 = load ptr, ptr %6, align 8
  %18 = load ptr, ptr %7, align 8
  %19 = call zeroext i1 @wmem_tree_foreach_nodes(ptr noundef %16, ptr noundef %17, ptr noundef %18)
  store i1 %19, ptr %4, align 1
  br label %20

20:                                               ; preds = %13, %12
  %21 = load i1, ptr %4, align 1
  ret i1 %21
}

; Function Attrs: null_pointer_is_valid sspstrong uwtable
define i32 @wmem_tree_count(ptr noundef %0) #0 {
  %2 = alloca ptr, align 8
  %3 = alloca i32, align 4
  store ptr %0, ptr %2, align 8
  call void @llvm.lifetime.start.p0(i64 4, ptr %3) #6
  store i32 0, ptr %3, align 4
  %4 = load ptr, ptr %2, align 8
  %5 = call zeroext i1 @wmem_tree_foreach(ptr noundef %4, ptr noundef @count_nodes, ptr noundef %3)
  %6 = load i32, ptr %3, align 4
  call void @llvm.lifetime.end.p0(i64 4, ptr %3) #6
  ret i32 %6
}