; Function Attrs: null_pointer_is_valid sspstrong uwtable
define i32 @wmem_tree_count(ptr noundef readonly captures(none) %0) local_unnamed_addr #0 {
  %2 = alloca i32, align 4
  call void @llvm.lifetime.start.p0(i64 4, ptr nonnull %2) #11
  store i32 0, ptr %2, align 4
  %3 = getelementptr inbounds nuw i8, ptr %0, i64 16
  %4 = load ptr, ptr %3, align 8
  %.not.i = icmp eq ptr %4, null
  br i1 %.not.i, label %wmem_tree_foreach.exit, label %5

5:                                                ; preds = %1
  %6 = call fastcc zeroext i1 @wmem_tree_foreach_nodes(ptr noundef %4, ptr noundef nonnull @count_nodes, ptr noundef nonnull %2)
  %.pre = load i32, ptr %2, align 4
  br label %wmem_tree_foreach.exit

wmem_tree_foreach.exit:                           ; preds = %1, %5
  %7 = phi i32 [ 0, %1 ], [ %.pre, %5 ]
  call void @llvm.lifetime.end.p0(i64 4, ptr nonnull %2) #11
  ret i32 %7
}